target datalayout = "e-m:e-p270:32:32-p271:32:32-p272:64:64-i64:64-i128:128-f80:128-n8:16:32:64-S128"
target triple = "x86_64-pc-linux-gnu"

%struct.AVCodecContext = type { ptr, i32, i32, ptr, i32, i32, ptr, ptr, ptr, i64, i32, i32, ptr, i32, %struct.AVRational, %struct.AVRational, %struct.AVRational, i32, i32, i32, i32, i32, %struct.AVRational, i32, i32, i32, i32, i32, i32, i32, i32, i32, i32, i32, ptr, ptr, i32, float, float, float, float, float, float, float, float, float, i32, i32, i32, i32, i32, i32, i32, i32, i32, i32, i32, i32, ptr, ptr, ptr, i32, i32, i32, i32, i32, i32, i32, i32, i32, i32, %struct.AVChannelLayout, i32, i32, i32, i32, i32, i32, i32, i32, ptr, i32, i32, i32, float, float, i32, i32, i32, i32, i32, ptr, i64, i64, float, float, i32, i32, ptr, ptr, i32, i32, i32, i32, i32, ptr, ptr, ptr, ptr, i32, i32, [8 x i64], i32, i32, i32, i32, i32, i32, i32, ptr, ptr, i32, i32, i32, i32, i32, i32, i32, i32, i32, i32, ptr, ptr, i32, i32, ptr, ptr, ptr, ptr, i32, i32, i64, i32, i32, i64, ptr, i64, ptr, i32, ptr, i32 }
%struct.AVRational = type { i32, i32 }
%struct.AVChannelLayout = type { i32, i32, %union.anon, ptr }
%union.anon = type { i64 }
%struct.AVCodec = type { ptr, ptr, i32, i32, i32, i8, ptr, ptr, ptr, ptr, ptr, ptr, ptr, ptr }
%struct.FFCodec = type { %struct.AVCodec, i32, i32, ptr, ptr, ptr, ptr, %union.anon.0, ptr, ptr, ptr, ptr, ptr, ptr }
%union.anon.0 = type { ptr }

@.str = private unnamed_addr constant [96 x i8] c"Application has requested %d threads. Using a thread count greater than %d is not recommended.\0A\00", align 1

; Function Attrs: alwaysinline nounwind uwtable
define internal ptr @ffcodec(ptr noundef %0) #4 {
  %2 = alloca ptr, align 8
  store ptr %0, ptr %2, align 8, !tbaa !47
  %3 = load ptr, ptr %2, align 8, !tbaa !47
  ret ptr %3
}

; Function Attrs: cold nounwind optsize uwtable
define internal void @validate_thread_parameters(ptr noundef %0) #0 {
  %2 = alloca ptr, align 8
  %3 = alloca i32, align 4
  store ptr %0, ptr %2, align 8, !tbaa !4
  call void @llvm.lifetime.start.p0(i64 4, ptr %3) #6
  %4 = load ptr, ptr %2, align 8, !tbaa !4
  %5 = getelementptr inbounds nuw %struct.AVCodecContext, ptr %4, i32 0, i32 3
  %6 = load ptr, ptr %5, align 8, !tbaa !29
  %7 = getelementptr inbounds nuw %struct.AVCodec, ptr %6, i32 0, i32 4
  %8 = load i32, ptr %7, align 8, !tbaa !30
  %9 = and i32 %8, 4096
  %10 = icmp ne i32 %9, 0
  br i1 %10, label %11, label %24

11:                                               ; preds = %1
  %12 = load ptr, ptr %2, align 8, !tbaa !4
  %13 = getelementptr inbounds nuw %struct.AVCodecContext, ptr %12, i32 0, i32 10
  %14 = load i32, ptr %13, align 8, !tbaa !35
  %15 = and i32 %14, 524288
  %16 = icmp ne i32 %15, 0
  br i1 %16, label %24, label %17

17:                                               ; preds = %11
  %18 = load ptr, ptr %2, align 8, !tbaa !4
  %19 = getelementptr inbounds nuw %struct.AVCodecContext, ptr %18, i32 0, i32 11
  %20 = load i32, ptr %19, align 4, !tbaa !36
  %21 = and i32 %20, 32768
  %22 = icmp ne i32 %21, 0
  %23 = xor i1 %22, true
  br label %24

24:                                               ; preds = %17, %11, %1
  %25 = phi i1 [ false, %11 ], [ false, %1 ], [ %23, %17 ]
  %26 = zext i1 %25 to i32
  store i32 %26, ptr %3, align 4, !tbaa !37
  %27 = load ptr, ptr %2, align 8, !tbaa !4
  %28 = getelementptr inbounds nuw %struct.AVCodecContext, ptr %27, i32 0, i32 116
  %29 = load i32, ptr %28, align 8, !tbaa !38
  %30 = icmp eq i32 %29, 1
  br i1 %30, label %31, label %34

31:                                               ; preds = %24
  %32 = load ptr, ptr %2, align 8, !tbaa !4
  %33 = getelementptr inbounds nuw %struct.AVCodecContext, ptr %32, i32 0, i32 118
  store i32 0, ptr %33, align 8, !tbaa !9
  br label %81

34:                                               ; preds = %24
  %35 = load i32, ptr %3, align 4, !tbaa !37
  %36 = icmp ne i32 %35, 0
  br i1 %36, label %37, label %46

37:                                               ; preds = %34
  %38 = load ptr, ptr %2, align 8, !tbaa !4
  %39 = getelementptr inbounds nuw %struct.AVCodecContext, ptr %38, i32 0, i32 117
  %40 = load i32, ptr %39, align 4, !tbaa !39
  %41 = and i32 %40, 1
  %42 = icmp ne i32 %41, 0
  br i1 %42, label %43, label %46

43:                                               ; preds = %37
  %44 = load ptr, ptr %2, align 8, !tbaa !4
  %45 = getelementptr inbounds nuw %struct.AVCodecContext, ptr %44, i32 0, i32 118
  store i32 1, ptr %45, align 8, !tbaa !9
  br label %80

46:                                               ; preds = %37, %34
  %47 = load ptr, ptr %2, align 8, !tbaa !4
  %48 = getelementptr inbounds nuw %struct.AVCodecContext, ptr %47, i32 0, i32 3
  %49 = load ptr, ptr %48, align 8, !tbaa !29
  %50 = getelementptr inbounds nuw %struct.AVCodec, ptr %49, i32 0, i32 4
  %51 = load i32, ptr %50, align 8, !tbaa !30
  %52 = and i32 %51, 8192
  %53 = icmp ne i32 %52, 0
  br i1 %53, label %54, label %63

54:                                               ; preds = %46
  %55 = load ptr, ptr %2, align 8, !tbaa !4
  %56 = getelementptr inbounds nuw %struct.AVCodecContext, ptr %55, i32 0, i32 117
  %57 = load i32, ptr %56, align 4, !tbaa !39
  %58 = and i32 %57, 2
  %59 = icmp ne i32 %58, 0
  br i1 %59, label %60, label %63

60:                                               ; preds = %54
  %61 = load ptr, ptr %2, align 8, !tbaa !4
  %62 = getelementptr inbounds nuw %struct.AVCodecContext, ptr %61, i32 0, i32 118
  store i32 2, ptr %62, align 8, !tbaa !9
  br label %79

63:                                               ; preds = %54, %46
  %64 = load ptr, ptr %2, align 8, !tbaa !4
  %65 = getelementptr inbounds nuw %struct.AVCodecContext, ptr %64, i32 0, i32 3
  %66 = load ptr, ptr %65, align 8, !tbaa !29
  %67 = call ptr @ffcodec(ptr noundef %66)
  %68 = getelementptr inbounds nuw %struct.FFCodec, ptr %67, i32 0, i32 1
  %69 = load i32, ptr %68, align 8
  %70 = and i32 %69, 67108863
  %71 = and i32 %70, 128
  %72 = icmp ne i32 %71, 0
  br i1 %72, label %78, label %73

73:                                               ; preds = %63
  %74 = load ptr, ptr %2, align 8, !tbaa !4
  %75 = getelementptr inbounds nuw %struct.AVCodecContext, ptr %74, i32 0, i32 116
  store i32 1, ptr %75, align 8, !tbaa !38
  %76 = load ptr, ptr %2, align 8, !tbaa !4
  %77 = getelementptr inbounds nuw %struct.AVCodecContext, ptr %76, i32 0, i32 118
  store i32 0, ptr %77, align 8, !tbaa !9
  br label %78

78:                                               ; preds = %73, %63
  br label %79

79:                                               ; preds = %78, %60
  br label %80

80:                                               ; preds = %79, %43
  br label %81

81:                                               ; preds = %80, %31
  %82 = load ptr, ptr %2, align 8, !tbaa !4
  %83 = getelementptr inbounds nuw %struct.AVCodecContext, ptr %82, i32 0, i32 116
  %84 = load i32, ptr %83, align 8, !tbaa !38
  %85 = icmp sgt i32 %84, 16
  br i1 %85, label %86, label %91

86:                                               ; preds = %81
  %87 = load ptr, ptr %2, align 8, !tbaa !4
  %88 = load ptr, ptr %2, align 8, !tbaa !4
  %89 = getelementptr inbounds nuw %struct.AVCodecContext, ptr %88, i32 0, i32 116
  %90 = load i32, ptr %89, align 8, !tbaa !38
  call void (ptr, i32, ptr, ...) @av_log(ptr noundef %87, i32 noundef 24, ptr noundef @.str, i32 noundef %90, i32 noundef 16)
  br label %91

91:                                               ; preds = %86, %81
  call void @llvm.lifetime.end.p0(i64 4, ptr %3) #6
  ret void
}