; Function Attrs: cold nounwind optsize uwtable
define internal fastcc void @validate_thread_parameters(ptr noundef %0) unnamed_addr #0 {
  %2 = getelementptr inbounds nuw i8, ptr %0, i64 16
  %3 = load ptr, ptr %2, align 8, !tbaa !27
  %4 = getelementptr inbounds nuw i8, ptr %3, i64 24
  %5 = load i32, ptr %4, align 8, !tbaa !28
  %6 = and i32 %5, 4096
  %.not = icmp eq i32 %6, 0
  br i1 %.not, label %15, label %7

7:                                                ; preds = %1
  %8 = getelementptr inbounds nuw i8, ptr %0, i64 64
  %9 = load i32, ptr %8, align 8, !tbaa !33
  %10 = and i32 %9, 524288
  %.not16 = icmp eq i32 %10, 0
  br i1 %.not16, label %11, label %15

11:                                               ; preds = %7
  %12 = getelementptr inbounds nuw i8, ptr %0, i64 68
  %13 = load i32, ptr %12, align 4, !tbaa !34
  %14 = and i32 %13, 32768
  %.not17 = icmp eq i32 %14, 0
  br label %15

15:                                               ; preds = %11, %7, %1
  %16 = phi i1 [ false, %7 ], [ false, %1 ], [ %.not17, %11 ]
  %17 = getelementptr inbounds nuw i8, ptr %0, i64 656
  %18 = load i32, ptr %17, align 8, !tbaa !35
  %19 = icmp eq i32 %18, 1
  br i1 %19, label %20, label %22

20:                                               ; preds = %15
  %21 = getelementptr inbounds nuw i8, ptr %0, i64 664
  store i32 0, ptr %21, align 8, !tbaa !4
  br label %.thread

22:                                               ; preds = %15
  br i1 %16, label %23, label %27

23:                                               ; preds = %22
  %24 = getelementptr inbounds nuw i8, ptr %0, i64 660
  %25 = load i32, ptr %24, align 4, !tbaa !36
  %26 = and i32 %25, 1
  %.not18 = icmp eq i32 %26, 0
  br i1 %.not18, label %27, label %.sink.split

27:                                               ; preds = %23, %22
  %28 = and i32 %5, 8192
  %.not19 = icmp eq i32 %28, 0
  br i1 %.not19, label %33, label %29

29:                                               ; preds = %27
  %30 = getelementptr inbounds nuw i8, ptr %0, i64 660
  %31 = load i32, ptr %30, align 4, !tbaa !36
  %32 = and i32 %31, 2
  %.not20 = icmp eq i32 %32, 0
  br i1 %.not20, label %33, label %.sink.split

33:                                               ; preds = %29, %27
  %34 = getelementptr inbounds nuw i8, ptr %3, i64 96
  %35 = load i32, ptr %34, align 8
  %36 = and i32 %35, 128
  %.not21 = icmp eq i32 %36, 0
  br i1 %.not21, label %37, label %40

37:                                               ; preds = %33
  store i32 1, ptr %17, align 8, !tbaa !35
  %38 = getelementptr inbounds nuw i8, ptr %0, i64 664
  store i32 0, ptr %38, align 8, !tbaa !4
  br label %.thread

.sink.split:                                      ; preds = %29, %23
  %.sink = phi i32 [ 1, %23 ], [ 2, %29 ]
  %39 = getelementptr inbounds nuw i8, ptr %0, i64 664
  store i32 %.sink, ptr %39, align 8, !tbaa !4
  br label %40

40:                                               ; preds = %.sink.split, %33
  %41 = icmp sgt i32 %18, 16
  br i1 %41, label %42, label %.thread

42:                                               ; preds = %40
  tail call void (ptr, i32, ptr, ...) @av_log(ptr noundef nonnull %0, i32 noundef 24, ptr noundef nonnull @.str, i32 noundef %18, i32 noundef 16) #4
  br label %.thread

.thread:                                          ; preds = %20, %37, %42, %40
  ret void
}